target datalayout = "e-m:e-p270:32:32-p271:32:32-p272:64:64-i64:64-i128:128-f80:128-n8:16:32:64-S128"
target triple = "x86_64-pc-linux-gnu"

%"class.std::optional" = type { %"struct.std::_Optional_base" }
%"struct.std::_Optional_base" = type { %"struct.std::_Optional_payload" }
%"struct.std::_Optional_payload" = type { %"struct.std::_Optional_payload_base.base", [3 x i8] }
%"struct.std::_Optional_payload_base.base" = type <{ %"union.std::_Optional_payload_base<unsigned int>::_Storage", i8 }>
%"union.std::_Optional_payload_base<unsigned int>::_Storage" = type { i32 }
%"struct.clang::TransferrableTargetInfo" = type <{ i8, i8, i8, i8, i8, i8, i8, i8, i8, i8, i8, i8, i8, i8, i8, i8, i8, i8, i8, i8, i8, i8, i8, i8, i8, [3 x i8], %"class.std::optional", i8, i8, i8, i8, i8, i8, i8, i8, i8, i8, i8, i8, i8, i8, i8, i8, i8, i8, i16, i16, [2 x i8], i32, i32, [4 x i8], ptr, ptr, ptr, ptr, ptr, ptr, ptr, i32, i32, i32, i32, i32, i32, i32, i32, i32, i32, i32, i32, i8, [3 x i8], i32, i32, [4 x i8] }>

; Function Attrs: mustprogress nounwind uwtable
define linkonce_odr hidden noundef i32 @_ZNK5clang10TargetInfo16getLongLongWidthEv(ptr noundef nonnull align 8 dereferenceable(489) %0) #0 comdat align 2 {
  %2 = alloca ptr, align 8
  store ptr %0, ptr %2, align 8
  %3 = load ptr, ptr %2, align 8
  %4 = getelementptr inbounds i8, ptr %3, i64 8
  %5 = getelementptr inbounds nuw %"struct.clang::TransferrableTargetInfo", ptr %4, i32 0, i32 22
  %6 = load i8, ptr %5, align 2
  %7 = zext i8 %6 to i32
  ret i32 %7
}

; Function Attrs: mustprogress nounwind uwtable
define linkonce_odr hidden noundef i32 @_ZNK5clang10TargetInfo12getLongWidthEv(ptr noundef nonnull align 8 dereferenceable(489) %0) #0 comdat align 2 {
  %2 = alloca ptr, align 8
  store ptr %0, ptr %2, align 8
  %3 = load ptr, ptr %2, align 8
  %4 = getelementptr inbounds i8, ptr %3, i64 8
  %5 = getelementptr inbounds nuw %"struct.clang::TransferrableTargetInfo", ptr %4, i32 0, i32 20
  %6 = load i8, ptr %5, align 4
  %7 = zext i8 %6 to i32
  ret i32 %7
}

; Function Attrs: mustprogress nounwind uwtable
define linkonce_odr hidden noundef i32 @_ZNK5clang10TargetInfo11getIntWidthEv(ptr noundef nonnull align 8 dereferenceable(489) %0) #0 comdat align 2 {
  %2 = alloca ptr, align 8
  store ptr %0, ptr %2, align 8
  %3 = load ptr, ptr %2, align 8
  %4 = getelementptr inbounds i8, ptr %3, i64 8
  %5 = getelementptr inbounds nuw %"struct.clang::TransferrableTargetInfo", ptr %4, i32 0, i32 4
  %6 = load i8, ptr %5, align 4
  %7 = zext i8 %6 to i32
  ret i32 %7
}

; Function Attrs: mustprogress nounwind uwtable
define linkonce_odr hidden noundef i32 @_ZNK5clang10TargetInfo13getShortWidthEv(ptr noundef nonnull align 8 dereferenceable(489) %0) #0 comdat align 2 {
  %2 = alloca ptr, align 8
  store ptr %0, ptr %2, align 8
  ret i32 16
}

; Function Attrs: mustprogress nounwind uwtable
define linkonce_odr hidden noundef i32 @_ZNK5clang10TargetInfo12getCharWidthEv(ptr noundef nonnull align 8 dereferenceable(489) %0) #0 comdat align 2 {
  %2 = alloca ptr, align 8
  store ptr %0, ptr %2, align 8
  ret i32 8
}

; Function Attrs: mustprogress nounwind uwtable
define dso_local noundef i32 @_ZNK5clang10TargetInfo17getIntTypeByWidthEjb(ptr noundef nonnull align 8 dereferenceable(489) %0, i32 noundef %1, i1 noundef zeroext %2) unnamed_addr #0 align 2 {
  %4 = alloca i32, align 4
  %5 = alloca ptr, align 8
  %6 = alloca i32, align 4
  %7 = alloca i8, align 1
  store ptr %0, ptr %5, align 8
  store i32 %1, ptr %6, align 4
  %8 = zext i1 %2 to i8
  store i8 %8, ptr %7, align 1
  %9 = load ptr, ptr %5, align 8
  %10 = call noundef i32 @_ZNK5clang10TargetInfo12getCharWidthEv(ptr noundef nonnull align 8 dereferenceable(489) %9)
  %11 = load i32, ptr %6, align 4
  %12 = icmp eq i32 %10, %11
  br i1 %12, label %13, label %17

13:                                               ; preds = %3
  %14 = load i8, ptr %7, align 1
  %15 = trunc i8 %14 to i1
  %16 = select i1 %15, i32 1, i32 2
  store i32 %16, ptr %4, align 4
  br label %50

17:                                               ; preds = %3
  %18 = call noundef i32 @_ZNK5clang10TargetInfo13getShortWidthEv(ptr noundef nonnull align 8 dereferenceable(489) %9)
  %19 = load i32, ptr %6, align 4
  %20 = icmp eq i32 %18, %19
  br i1 %20, label %21, label %25

21:                                               ; preds = %17
  %22 = load i8, ptr %7, align 1
  %23 = trunc i8 %22 to i1
  %24 = select i1 %23, i32 3, i32 4
  store i32 %24, ptr %4, align 4
  br label %50

25:                                               ; preds = %17
  %26 = call noundef i32 @_ZNK5clang10TargetInfo11getIntWidthEv(ptr noundef nonnull align 8 dereferenceable(489) %9)
  %27 = load i32, ptr %6, align 4
  %28 = icmp eq i32 %26, %27
  br i1 %28, label %29, label %33

29:                                               ; preds = %25
  %30 = load i8, ptr %7, align 1
  %31 = trunc i8 %30 to i1
  %32 = select i1 %31, i32 5, i32 6
  store i32 %32, ptr %4, align 4
  br label %50

33:                                               ; preds = %25
  %34 = call noundef i32 @_ZNK5clang10TargetInfo12getLongWidthEv(ptr noundef nonnull align 8 dereferenceable(489) %9)
  %35 = load i32, ptr %6, align 4
  %36 = icmp eq i32 %34, %35
  br i1 %36, label %37, label %41

37:                                               ; preds = %33
  %38 = load i8, ptr %7, align 1
  %39 = trunc i8 %38 to i1
  %40 = select i1 %39, i32 7, i32 8
  store i32 %40, ptr %4, align 4
  br label %50

41:                                               ; preds = %33
  %42 = call noundef i32 @_ZNK5clang10TargetInfo16getLongLongWidthEv(ptr noundef nonnull align 8 dereferenceable(489) %9)
  %43 = load i32, ptr %6, align 4
  %44 = icmp eq i32 %42, %43
  br i1 %44, label %45, label %49

45:                                               ; preds = %41
  %46 = load i8, ptr %7, align 1
  %47 = trunc i8 %46 to i1
  %48 = select i1 %47, i32 9, i32 10
  store i32 %48, ptr %4, align 4
  br label %50

49:                                               ; preds = %41
  store i32 0, ptr %4, align 4
  br label %50

50:                                               ; preds = %49, %45, %37, %29, %21, %13
  %51 = load i32, ptr %4, align 4
  ret i32 %51
}