; Function Attrs: mustprogress nofree norecurse nosync nounwind willreturn memory(argmem: read) uwtable
define dso_local noundef range(i32 0, 11) i32 @_ZNK5clang10TargetInfo17getIntTypeByWidthEjb(ptr noundef nonnull readonly align 8 captures(none) dereferenceable(489) %0, i32 noundef %1, i1 noundef zeroext %2) unnamed_addr #8 align 2 {
  switch i32 %1, label %8 [
    i32 8, label %4
    i32 16, label %6
  ]

4:                                                ; preds = %3
  %5 = select i1 %2, i32 1, i32 2
  br label %28

6:                                                ; preds = %3
  %7 = select i1 %2, i32 3, i32 4
  br label %28

8:                                                ; preds = %3
  %9 = getelementptr inbounds nuw i8, ptr %0, i64 12
  %10 = load i8, ptr %9, align 4
  %11 = zext i8 %10 to i32
  %12 = icmp eq i32 %1, %11
  br i1 %12, label %13, label %15

13:                                               ; preds = %8
  %14 = select i1 %2, i32 5, i32 6
  br label %28

15:                                               ; preds = %8
  %16 = getelementptr inbounds nuw i8, ptr %0, i64 28
  %17 = load i8, ptr %16, align 4
  %18 = zext i8 %17 to i32
  %19 = icmp eq i32 %1, %18
  br i1 %19, label %20, label %22

20:                                               ; preds = %15
  %21 = select i1 %2, i32 7, i32 8
  br label %28

22:                                               ; preds = %15
  %23 = getelementptr inbounds nuw i8, ptr %0, i64 30
  %24 = load i8, ptr %23, align 2
  %25 = zext i8 %24 to i32
  %26 = icmp eq i32 %1, %25
  %27 = select i1 %2, i32 9, i32 10
  %spec.select = select i1 %26, i32 %27, i32 0
  br label %28

28:                                               ; preds = %22, %20, %13, %6, %4
  %.0 = phi i32 [ %5, %4 ], [ %7, %6 ], [ %14, %13 ], [ %21, %20 ], [ %spec.select, %22 ]
  ret i32 %.0
}